; Function Attrs: null_pointer_is_valid sspstrong uwtable
define internal fastcc range(i32 1, 10) i32 @tvb_get_fle(ptr noundef %0, i32 noundef %1, ptr noundef writeonly captures(address_is_null) %2, ptr noundef writeonly captures(address_is_null) %3) unnamed_addr #0 {
  %5 = tail call zeroext i8 @tvb_get_uint8(ptr noundef %0, i32 noundef %1)
  %.not = icmp eq ptr %3, null
  br i1 %.not, label %7, label %6

6:                                                ; preds = %4
  store i8 0, ptr %3, align 1
  br label %7

7:                                                ; preds = %6, %4
  switch i8 %5, label %23 [
    i8 -5, label %8
    i8 -4, label %12
    i8 -3, label %16
    i8 -2, label %20
  ]

8:                                                ; preds = %7
  %.not29 = icmp eq ptr %2, null
  br i1 %.not29, label %10, label %9

9:                                                ; preds = %8
  store i64 0, ptr %2, align 8
  br label %10

10:                                               ; preds = %9, %8
  br i1 %.not, label %28, label %11

11:                                               ; preds = %10
  store i8 1, ptr %3, align 1
  br label %28

12:                                               ; preds = %7
  %13 = add i32 %1, 1
  %14 = tail call zeroext i16 @tvb_get_uint16(ptr noundef %0, i32 noundef %13, i32 noundef -2147483648)
  %15 = zext i16 %14 to i64
  br label %26

16:                                               ; preds = %7
  %17 = add i32 %1, 1
  %18 = tail call i32 @tvb_get_uint24(ptr noundef %0, i32 noundef %17, i32 noundef -2147483648)
  %19 = zext i32 %18 to i64
  br label %26

20:                                               ; preds = %7
  %21 = add i32 %1, 1
  %22 = tail call i64 @tvb_get_uint64(ptr noundef %0, i32 noundef %21, i32 noundef -2147483648)
  br label %26

23:                                               ; preds = %7
  %24 = tail call zeroext i8 @tvb_get_uint8(ptr noundef %0, i32 noundef %1)
  %25 = zext i8 %24 to i64
  br label %26

26:                                               ; preds = %23, %20, %16, %12
  %.024 = phi i32 [ 1, %23 ], [ 9, %20 ], [ 4, %16 ], [ 3, %12 ]
  %.0 = phi i64 [ %25, %23 ], [ %22, %20 ], [ %19, %16 ], [ %15, %12 ]
  %.not30 = icmp eq ptr %2, null
  br i1 %.not30, label %28, label %27

27:                                               ; preds = %26
  store i64 %.0, ptr %2, align 8
  br label %28

28:                                               ; preds = %26, %27, %10, %11
  %.025 = phi i32 [ 1, %11 ], [ 1, %10 ], [ %.024, %27 ], [ %.024, %26 ]
  ret i32 %.025
}